target datalayout = "e-m:e-p270:32:32-p271:32:32-p272:64:64-i64:64-i128:128-f80:128-n8:16:32:64-S128"
target triple = "x86_64-unknown-linux-gnu"

%"struct.OpenColorIO_v2_4dev::PackedImageDesc::Impl" = type <{ ptr, ptr, ptr, ptr, ptr, i32, i32, i64, i64, i64, i64, i64, i64, i8, i8, [6 x i8] }>
%"class.OpenColorIO_v2_4dev::PackedImageDesc" = type { %"class.OpenColorIO_v2_4dev::ImageDesc", ptr }
%"class.OpenColorIO_v2_4dev::ImageDesc" = type { ptr }

@_ZTIN19OpenColorIO_v2_4dev9ExceptionE = external constant ptr
@.str.20 = private unnamed_addr constant [49 x i8] c"PackedImageDesc Error: Unknown channel ordering.\00", align 1

; Function Attrs: mustprogress nounwind uwtable
define void @_ZN19OpenColorIO_v2_4dev9ImageDescD2Ev(ptr noundef nonnull align 8 dereferenceable(8) %this) unnamed_addr #6 align 2 {
entry:
  %this.addr = alloca ptr, align 8
  store ptr %this, ptr %this.addr, align 8
  ret void
}

; Function Attrs: mustprogress nounwind uwtable
define linkonce_odr hidden noundef zeroext i1 @_ZNK19OpenColorIO_v2_4dev15PackedImageDesc4Impl7isFloatEv(ptr noundef nonnull align 8 dereferenceable(98) %this) #6 comdat align 2 {
entry:
  %this.addr = alloca ptr, align 8
  store ptr %this, ptr %this.addr, align 8
  %this1 = load ptr, ptr %this.addr, align 8
  %m_chanStrideBytes = getelementptr inbounds %"struct.OpenColorIO_v2_4dev::PackedImageDesc::Impl", ptr %this1, i32 0, i32 10
  %0 = load i64, ptr %m_chanStrideBytes, align 8
  %cmp = icmp eq i64 %0, 4
  br i1 %cmp, label %land.rhs, label %land.end

land.rhs:                                         ; preds = %entry
  %m_bitDepth = getelementptr inbounds %"struct.OpenColorIO_v2_4dev::PackedImageDesc::Impl", ptr %this1, i32 0, i32 6
  %1 = load i32, ptr %m_bitDepth, align 4
  %cmp2 = icmp eq i32 %1, 8
  br label %land.end

land.end:                                         ; preds = %land.rhs, %entry
  %2 = phi i1 [ false, %entry ], [ %cmp2, %land.rhs ]
  ret i1 %2
}

; Function Attrs: mustprogress nounwind uwtable
define linkonce_odr hidden noundef ptr @_ZN19OpenColorIO_v2_4dev15PackedImageDesc7getImplEv(ptr noundef nonnull align 8 dereferenceable(16) %this) #6 comdat align 2 {
entry:
  %this.addr = alloca ptr, align 8
  store ptr %this, ptr %this.addr, align 8
  %this1 = load ptr, ptr %this.addr, align 8
  %m_impl = getelementptr inbounds %"class.OpenColorIO_v2_4dev::PackedImageDesc", ptr %this1, i32 0, i32 1
  %0 = load ptr, ptr %m_impl, align 8
  ret ptr %0
}

; Function Attrs: mustprogress nounwind uwtable
define linkonce_odr hidden void @_ZN19OpenColorIO_v2_4dev15PackedImageDesc4ImplC2Ev(ptr noundef nonnull align 8 dereferenceable(98) %this) unnamed_addr #6 comdat align 2 {
entry:
  %this.addr = alloca ptr, align 8
  store ptr %this, ptr %this.addr, align 8
  %this1 = load ptr, ptr %this.addr, align 8
  %m_data = getelementptr inbounds %"struct.OpenColorIO_v2_4dev::PackedImageDesc::Impl", ptr %this1, i32 0, i32 0
  store ptr null, ptr %m_data, align 8
  %m_rData = getelementptr inbounds %"struct.OpenColorIO_v2_4dev::PackedImageDesc::Impl", ptr %this1, i32 0, i32 1
  store ptr null, ptr %m_rData, align 8
  %m_gData = getelementptr inbounds %"struct.OpenColorIO_v2_4dev::PackedImageDesc::Impl", ptr %this1, i32 0, i32 2
  store ptr null, ptr %m_gData, align 8
  %m_bData = getelementptr inbounds %"struct.OpenColorIO_v2_4dev::PackedImageDesc::Impl", ptr %this1, i32 0, i32 3
  store ptr null, ptr %m_bData, align 8
  %m_aData = getelementptr inbounds %"struct.OpenColorIO_v2_4dev::PackedImageDesc::Impl", ptr %this1, i32 0, i32 4
  store ptr null, ptr %m_aData, align 8
  %m_chanOrder = getelementptr inbounds %"struct.OpenColorIO_v2_4dev::PackedImageDesc::Impl", ptr %this1, i32 0, i32 5
  store i32 0, ptr %m_chanOrder, align 8
  %m_bitDepth = getelementptr inbounds %"struct.OpenColorIO_v2_4dev::PackedImageDesc::Impl", ptr %this1, i32 0, i32 6
  store i32 0, ptr %m_bitDepth, align 4
  %m_width = getelementptr inbounds %"struct.OpenColorIO_v2_4dev::PackedImageDesc::Impl", ptr %this1, i32 0, i32 7
  store i64 0, ptr %m_width, align 8
  %m_height = getelementptr inbounds %"struct.OpenColorIO_v2_4dev::PackedImageDesc::Impl", ptr %this1, i32 0, i32 8
  store i64 0, ptr %m_height, align 8
  %m_numChannels = getelementptr inbounds %"struct.OpenColorIO_v2_4dev::PackedImageDesc::Impl", ptr %this1, i32 0, i32 9
  store i64 0, ptr %m_numChannels, align 8
  %m_chanStrideBytes = getelementptr inbounds %"struct.OpenColorIO_v2_4dev::PackedImageDesc::Impl", ptr %this1, i32 0, i32 10
  store i64 0, ptr %m_chanStrideBytes, align 8
  %m_xStrideBytes = getelementptr inbounds %"struct.OpenColorIO_v2_4dev::PackedImageDesc::Impl", ptr %this1, i32 0, i32 11
  store i64 0, ptr %m_xStrideBytes, align 8
  %m_yStrideBytes = getelementptr inbounds %"struct.OpenColorIO_v2_4dev::PackedImageDesc::Impl", ptr %this1, i32 0, i32 12
  store i64 0, ptr %m_yStrideBytes, align 8
  %m_isRGBAPacked = getelementptr inbounds %"struct.OpenColorIO_v2_4dev::PackedImageDesc::Impl", ptr %this1, i32 0, i32 13
  store i8 0, ptr %m_isRGBAPacked, align 8
  %m_isFloat = getelementptr inbounds %"struct.OpenColorIO_v2_4dev::PackedImageDesc::Impl", ptr %this1, i32 0, i32 14
  store i8 0, ptr %m_isFloat, align 1
  ret void
}

; Function Attrs: mustprogress nounwind uwtable
define void @_ZN19OpenColorIO_v2_4dev9ImageDescC2Ev(ptr noundef nonnull align 8 dereferenceable(8) %this) unnamed_addr #6 align 2 {
entry:
  %this.addr = alloca ptr, align 8
  store ptr %this, ptr %this.addr, align 8
  %this1 = load ptr, ptr %this.addr, align 8
  store ptr getelementptr inbounds ({ [15 x ptr] }, ptr @_ZTVN19OpenColorIO_v2_4dev9ImageDescE, i32 0, i32 0, i32 2), ptr %this1, align 8
  ret void
}

; Function Attrs: mustprogress uwtable
define void @_ZN19OpenColorIO_v2_4dev15PackedImageDescC2EPvllNS_15ChannelOrderingE(ptr noundef nonnull align 8 dereferenceable(16) %this, ptr noundef %data, i64 noundef %width, i64 noundef %height, i32 noundef %chanOrder) unnamed_addr #4 align 2 personality ptr @__gxx_personality_v0 {
entry:
  %this.addr = alloca ptr, align 8
  %data.addr = alloca ptr, align 8
  %width.addr = alloca i64, align 8
  %height.addr = alloca i64, align 8
  %chanOrder.addr = alloca i32, align 4
  %exn.slot = alloca ptr, align 8
  %ehselector.slot = alloca i32, align 4
  %oneChannelInBytes = alloca i32, align 4
  store ptr %this, ptr %this.addr, align 8
  store ptr %data, ptr %data.addr, align 8
  store i64 %width, ptr %width.addr, align 8
  store i64 %height, ptr %height.addr, align 8
  store i32 %chanOrder, ptr %chanOrder.addr, align 4
  %this1 = load ptr, ptr %this.addr, align 8
  call void @_ZN19OpenColorIO_v2_4dev9ImageDescC2Ev(ptr noundef nonnull align 8 dereferenceable(8) %this1)
  store ptr getelementptr inbounds ({ [15 x ptr] }, ptr @_ZTVN19OpenColorIO_v2_4dev15PackedImageDescE, i32 0, i32 0, i32 2), ptr %this1, align 8
  %m_impl = getelementptr inbounds %"class.OpenColorIO_v2_4dev::PackedImageDesc", ptr %this1, i32 0, i32 1
  %call = invoke noalias noundef nonnull ptr @_Znwm(i64 noundef 104) #16
          to label %invoke.cont unwind label %lpad

invoke.cont:                                      ; preds = %entry
  call void @_ZN19OpenColorIO_v2_4dev15PackedImageDesc4ImplC2Ev(ptr noundef nonnull align 8 dereferenceable(98) %call) #3
  store ptr %call, ptr %m_impl, align 8
  %0 = load ptr, ptr %data.addr, align 8
  %call3 = invoke noundef ptr @_ZN19OpenColorIO_v2_4dev15PackedImageDesc7getImplEv(ptr noundef nonnull align 8 dereferenceable(16) %this1)
          to label %invoke.cont2 unwind label %lpad

invoke.cont2:                                     ; preds = %invoke.cont
  %m_data = getelementptr inbounds %"struct.OpenColorIO_v2_4dev::PackedImageDesc::Impl", ptr %call3, i32 0, i32 0
  store ptr %0, ptr %m_data, align 8
  %1 = load i64, ptr %width.addr, align 8
  %call5 = invoke noundef ptr @_ZN19OpenColorIO_v2_4dev15PackedImageDesc7getImplEv(ptr noundef nonnull align 8 dereferenceable(16) %this1)
          to label %invoke.cont4 unwind label %lpad

invoke.cont4:                                     ; preds = %invoke.cont2
  %m_width = getelementptr inbounds %"struct.OpenColorIO_v2_4dev::PackedImageDesc::Impl", ptr %call5, i32 0, i32 7
  store i64 %1, ptr %m_width, align 8
  %2 = load i64, ptr %height.addr, align 8
  %call7 = invoke noundef ptr @_ZN19OpenColorIO_v2_4dev15PackedImageDesc7getImplEv(ptr noundef nonnull align 8 dereferenceable(16) %this1)
          to label %invoke.cont6 unwind label %lpad

invoke.cont6:                                     ; preds = %invoke.cont4
  %m_height = getelementptr inbounds %"struct.OpenColorIO_v2_4dev::PackedImageDesc::Impl", ptr %call7, i32 0, i32 8
  store i64 %2, ptr %m_height, align 8
  %3 = load i32, ptr %chanOrder.addr, align 4
  %call9 = invoke noundef ptr @_ZN19OpenColorIO_v2_4dev15PackedImageDesc7getImplEv(ptr noundef nonnull align 8 dereferenceable(16) %this1)
          to label %invoke.cont8 unwind label %lpad

invoke.cont8:                                     ; preds = %invoke.cont6
  %m_chanOrder = getelementptr inbounds %"struct.OpenColorIO_v2_4dev::PackedImageDesc::Impl", ptr %call9, i32 0, i32 5
  store i32 %3, ptr %m_chanOrder, align 8
  %call11 = invoke noundef ptr @_ZN19OpenColorIO_v2_4dev15PackedImageDesc7getImplEv(ptr noundef nonnull align 8 dereferenceable(16) %this1)
          to label %invoke.cont10 unwind label %lpad

invoke.cont10:                                    ; preds = %invoke.cont8
  %m_bitDepth = getelementptr inbounds %"struct.OpenColorIO_v2_4dev::PackedImageDesc::Impl", ptr %call11, i32 0, i32 6
  store i32 8, ptr %m_bitDepth, align 4
  %4 = load i32, ptr %chanOrder.addr, align 4
  %cmp = icmp eq i32 %4, 0
  br i1 %cmp, label %if.then, label %lor.lhs.false

lor.lhs.false:                                    ; preds = %invoke.cont10
  %5 = load i32, ptr %chanOrder.addr, align 4
  %cmp12 = icmp eq i32 %5, 1
  br i1 %cmp12, label %if.then, label %lor.lhs.false13

lor.lhs.false13:                                  ; preds = %lor.lhs.false
  %6 = load i32, ptr %chanOrder.addr, align 4
  %cmp14 = icmp eq i32 %6, 2
  br i1 %cmp14, label %if.then, label %if.else

if.then:                                          ; preds = %lor.lhs.false13, %lor.lhs.false, %invoke.cont10
  %call16 = invoke noundef ptr @_ZN19OpenColorIO_v2_4dev15PackedImageDesc7getImplEv(ptr noundef nonnull align 8 dereferenceable(16) %this1)
          to label %invoke.cont15 unwind label %lpad

invoke.cont15:                                    ; preds = %if.then
  %m_numChannels = getelementptr inbounds %"struct.OpenColorIO_v2_4dev::PackedImageDesc::Impl", ptr %call16, i32 0, i32 9
  store i64 4, ptr %m_numChannels, align 8
  br label %if.end27

lpad:                                             ; preds = %invoke.cont60, %invoke.cont57, %invoke.cont55, %invoke.cont53, %invoke.cont51, %invoke.cont49, %invoke.cont47, %invoke.cont46, %invoke.cont44, %invoke.cont42, %invoke.cont38, %invoke.cont36, %invoke.cont33, %invoke.cont30, %invoke.cont28, %if.end27, %invoke.cont26, %if.then20, %if.then, %invoke.cont8, %invoke.cont6, %invoke.cont4, %invoke.cont2, %invoke.cont, %entry
  %7 = landingpad { ptr, i32 }
          cleanup
  %8 = extractvalue { ptr, i32 } %7, 0
  store ptr %8, ptr %exn.slot, align 8
  %9 = extractvalue { ptr, i32 } %7, 1
  store i32 %9, ptr %ehselector.slot, align 4
  br label %ehcleanup

if.else:                                          ; preds = %lor.lhs.false13
  %10 = load i32, ptr %chanOrder.addr, align 4
  %cmp17 = icmp eq i32 %10, 3
  br i1 %cmp17, label %if.then20, label %lor.lhs.false18

lor.lhs.false18:                                  ; preds = %if.else
  %11 = load i32, ptr %chanOrder.addr, align 4
  %cmp19 = icmp eq i32 %11, 4
  br i1 %cmp19, label %if.then20, label %if.else24

if.then20:                                        ; preds = %lor.lhs.false18, %if.else
  %call22 = invoke noundef ptr @_ZN19OpenColorIO_v2_4dev15PackedImageDesc7getImplEv(ptr noundef nonnull align 8 dereferenceable(16) %this1)
          to label %invoke.cont21 unwind label %lpad

invoke.cont21:                                    ; preds = %if.then20
  %m_numChannels23 = getelementptr inbounds %"struct.OpenColorIO_v2_4dev::PackedImageDesc::Impl", ptr %call22, i32 0, i32 9
  store i64 3, ptr %m_numChannels23, align 8
  br label %if.end

if.else24:                                        ; preds = %lor.lhs.false18
  %exception = call ptr @__cxa_allocate_exception(i64 16) #3
  invoke void @_ZN19OpenColorIO_v2_4dev9ExceptionC1EPKc(ptr noundef nonnull align 8 dereferenceable(16) %exception, ptr noundef @.str.20)
          to label %invoke.cont26 unwind label %lpad25

invoke.cont26:                                    ; preds = %if.else24
  invoke void @__cxa_throw(ptr %exception, ptr @_ZTIN19OpenColorIO_v2_4dev9ExceptionE, ptr @_ZN19OpenColorIO_v2_4dev9ExceptionD1Ev) #15
          to label %unreachable unwind label %lpad

lpad25:                                           ; preds = %if.else24
  %12 = landingpad { ptr, i32 }
          cleanup
  %13 = extractvalue { ptr, i32 } %12, 0
  store ptr %13, ptr %exn.slot, align 8
  %14 = extractvalue { ptr, i32 } %12, 1
  store i32 %14, ptr %ehselector.slot, align 4
  call void @__cxa_free_exception(ptr %exception) #3
  br label %ehcleanup

if.end:                                           ; preds = %invoke.cont21
  br label %if.end27

if.end27:                                         ; preds = %if.end, %invoke.cont15
  store i32 4, ptr %oneChannelInBytes, align 4
  %call29 = invoke noundef ptr @_ZN19OpenColorIO_v2_4dev15PackedImageDesc7getImplEv(ptr noundef nonnull align 8 dereferenceable(16) %this1)
          to label %invoke.cont28 unwind label %lpad

invoke.cont28:                                    ; preds = %if.end27
  %m_chanStrideBytes = getelementptr inbounds %"struct.OpenColorIO_v2_4dev::PackedImageDesc::Impl", ptr %call29, i32 0, i32 10
  store i64 4, ptr %m_chanStrideBytes, align 8
  %call31 = invoke noundef ptr @_ZN19OpenColorIO_v2_4dev15PackedImageDesc7getImplEv(ptr noundef nonnull align 8 dereferenceable(16) %this1)
          to label %invoke.cont30 unwind label %lpad

invoke.cont30:                                    ; preds = %invoke.cont28
  %m_chanStrideBytes32 = getelementptr inbounds %"struct.OpenColorIO_v2_4dev::PackedImageDesc::Impl", ptr %call31, i32 0, i32 10
  %15 = load i64, ptr %m_chanStrideBytes32, align 8
  %call34 = invoke noundef ptr @_ZN19OpenColorIO_v2_4dev15PackedImageDesc7getImplEv(ptr noundef nonnull align 8 dereferenceable(16) %this1)
          to label %invoke.cont33 unwind label %lpad

invoke.cont33:                                    ; preds = %invoke.cont30
  %m_numChannels35 = getelementptr inbounds %"struct.OpenColorIO_v2_4dev::PackedImageDesc::Impl", ptr %call34, i32 0, i32 9
  %16 = load i64, ptr %m_numChannels35, align 8
  %mul = mul nsw i64 %15, %16
  %call37 = invoke noundef ptr @_ZN19OpenColorIO_v2_4dev15PackedImageDesc7getImplEv(ptr noundef nonnull align 8 dereferenceable(16) %this1)
          to label %invoke.cont36 unwind label %lpad

invoke.cont36:                                    ; preds = %invoke.cont33
  %m_xStrideBytes = getelementptr inbounds %"struct.OpenColorIO_v2_4dev::PackedImageDesc::Impl", ptr %call37, i32 0, i32 11
  store i64 %mul, ptr %m_xStrideBytes, align 8
  %call39 = invoke noundef ptr @_ZN19OpenColorIO_v2_4dev15PackedImageDesc7getImplEv(ptr noundef nonnull align 8 dereferenceable(16) %this1)
          to label %invoke.cont38 unwind label %lpad

invoke.cont38:                                    ; preds = %invoke.cont36
  %m_xStrideBytes40 = getelementptr inbounds %"struct.OpenColorIO_v2_4dev::PackedImageDesc::Impl", ptr %call39, i32 0, i32 11
  %17 = load i64, ptr %m_xStrideBytes40, align 8
  %18 = load i64, ptr %width.addr, align 8
  %mul41 = mul nsw i64 %17, %18
  %call43 = invoke noundef ptr @_ZN19OpenColorIO_v2_4dev15PackedImageDesc7getImplEv(ptr noundef nonnull align 8 dereferenceable(16) %this1)
          to label %invoke.cont42 unwind label %lpad

invoke.cont42:                                    ; preds = %invoke.cont38
  %m_yStrideBytes = getelementptr inbounds %"struct.OpenColorIO_v2_4dev::PackedImageDesc::Impl", ptr %call43, i32 0, i32 12
  store i64 %mul41, ptr %m_yStrideBytes, align 8
  %call45 = invoke noundef ptr @_ZN19OpenColorIO_v2_4dev15PackedImageDesc7getImplEv(ptr noundef nonnull align 8 dereferenceable(16) %this1)
          to label %invoke.cont44 unwind label %lpad

invoke.cont44:                                    ; preds = %invoke.cont42
  invoke void @_ZN19OpenColorIO_v2_4dev15PackedImageDesc4Impl10initValuesEv(ptr noundef nonnull align 8 dereferenceable(98) %call45)
          to label %invoke.cont46 unwind label %lpad

invoke.cont46:                                    ; preds = %invoke.cont44
  %call48 = invoke noundef ptr @_ZN19OpenColorIO_v2_4dev15PackedImageDesc7getImplEv(ptr noundef nonnull align 8 dereferenceable(16) %this1)
          to label %invoke.cont47 unwind label %lpad

invoke.cont47:                                    ; preds = %invoke.cont46
  %call50 = invoke noundef zeroext i1 @_ZNK19OpenColorIO_v2_4dev15PackedImageDesc4Impl12isRGBAPackedEv(ptr noundef nonnull align 8 dereferenceable(98) %call48)
          to label %invoke.cont49 unwind label %lpad

invoke.cont49:                                    ; preds = %invoke.cont47
  %call52 = invoke noundef ptr @_ZN19OpenColorIO_v2_4dev15PackedImageDesc7getImplEv(ptr noundef nonnull align 8 dereferenceable(16) %this1)
          to label %invoke.cont51 unwind label %lpad

invoke.cont51:                                    ; preds = %invoke.cont49
  %m_isRGBAPacked = getelementptr inbounds %"struct.OpenColorIO_v2_4dev::PackedImageDesc::Impl", ptr %call52, i32 0, i32 13
  %frombool = zext i1 %call50 to i8
  store i8 %frombool, ptr %m_isRGBAPacked, align 8
  %call54 = invoke noundef ptr @_ZN19OpenColorIO_v2_4dev15PackedImageDesc7getImplEv(ptr noundef nonnull align 8 dereferenceable(16) %this1)
          to label %invoke.cont53 unwind label %lpad

invoke.cont53:                                    ; preds = %invoke.cont51
  %call56 = invoke noundef zeroext i1 @_ZNK19OpenColorIO_v2_4dev15PackedImageDesc4Impl7isFloatEv(ptr noundef nonnull align 8 dereferenceable(98) %call54)
          to label %invoke.cont55 unwind label %lpad

invoke.cont55:                                    ; preds = %invoke.cont53
  %call58 = invoke noundef ptr @_ZN19OpenColorIO_v2_4dev15PackedImageDesc7getImplEv(ptr noundef nonnull align 8 dereferenceable(16) %this1)
          to label %invoke.cont57 unwind label %lpad

invoke.cont57:                                    ; preds = %invoke.cont55
  %m_isFloat = getelementptr inbounds %"struct.OpenColorIO_v2_4dev::PackedImageDesc::Impl", ptr %call58, i32 0, i32 14
  %frombool59 = zext i1 %call56 to i8
  store i8 %frombool59, ptr %m_isFloat, align 1
  %call61 = invoke noundef ptr @_ZN19OpenColorIO_v2_4dev15PackedImageDesc7getImplEv(ptr noundef nonnull align 8 dereferenceable(16) %this1)
          to label %invoke.cont60 unwind label %lpad

invoke.cont60:                                    ; preds = %invoke.cont57
  invoke void @_ZNK19OpenColorIO_v2_4dev15PackedImageDesc4Impl8validateEv(ptr noundef nonnull align 8 dereferenceable(98) %call61)
          to label %invoke.cont62 unwind label %lpad

invoke.cont62:                                    ; preds = %invoke.cont60
  ret void

ehcleanup:                                        ; preds = %lpad25, %lpad
  call void @_ZN19OpenColorIO_v2_4dev9ImageDescD2Ev(ptr noundef nonnull align 8 dereferenceable(8) %this1) #3
  br label %eh.resume

eh.resume:                                        ; preds = %ehcleanup
  %exn = load ptr, ptr %exn.slot, align 8
  %sel = load i32, ptr %ehselector.slot, align 4
  %lpad.val = insertvalue { ptr, i32 } poison, ptr %exn, 0
  %lpad.val63 = insertvalue { ptr, i32 } %lpad.val, i32 %sel, 1
  resume { ptr, i32 } %lpad.val63

unreachable:                                      ; preds = %invoke.cont26
  unreachable
}