; Function Attrs: mustprogress uwtable
define void @_ZN19OpenColorIO_v2_4dev15PackedImageDescC2EPvllNS_15ChannelOrderingE(ptr nocapture noundef nonnull align 8 dereferenceable(16) %this, ptr noundef %data, i64 noundef %width, i64 noundef %height, i32 noundef %chanOrder) unnamed_addr #3 align 2 personality ptr @__gxx_personality_v0 {
entry:
  store ptr getelementptr inbounds ({ [15 x ptr] }, ptr @_ZTVN19OpenColorIO_v2_4dev15PackedImageDescE, i64 0, i32 0, i64 2), ptr %this, align 8
  %call = tail call noalias noundef nonnull dereferenceable(104) ptr @_Znwm(i64 noundef 104) #21
  %m_impl = getelementptr inbounds i8, ptr %this, i64 8
  %0 = getelementptr inbounds i8, ptr %call, i64 8
  tail call void @llvm.memset.p0.i64(ptr noundef nonnull align 8 dereferenceable(98) %0, i8 0, i64 90, i1 false)
  store ptr %call, ptr %m_impl, align 8
  store ptr %data, ptr %call, align 8
  %m_width = getelementptr inbounds i8, ptr %call, i64 48
  store i64 %width, ptr %m_width, align 8
  %m_height = getelementptr inbounds i8, ptr %call, i64 56
  store i64 %height, ptr %m_height, align 8
  %m_chanOrder = getelementptr inbounds i8, ptr %call, i64 40
  store i32 %chanOrder, ptr %m_chanOrder, align 8
  %m_bitDepth = getelementptr inbounds i8, ptr %call, i64 44
  store i32 8, ptr %m_bitDepth, align 4
  %or.cond1 = icmp ult i32 %chanOrder, 3
  br i1 %or.cond1, label %if.end27, label %if.else

if.else:                                          ; preds = %entry
  %1 = add i32 %chanOrder, -3
  %or.cond2 = icmp ult i32 %1, 2
  br i1 %or.cond2, label %if.end27, label %if.else24

if.else24:                                        ; preds = %if.else
  %exception = tail call ptr @__cxa_allocate_exception(i64 16) #18
  invoke void @_ZN19OpenColorIO_v2_4dev9ExceptionC1EPKc(ptr noundef nonnull align 8 dereferenceable(16) %exception, ptr noundef nonnull @.str.20)
          to label %invoke.cont26 unwind label %lpad25

invoke.cont26:                                    ; preds = %if.else24
  tail call void @__cxa_throw(ptr nonnull %exception, ptr nonnull @_ZTIN19OpenColorIO_v2_4dev9ExceptionE, ptr nonnull @_ZN19OpenColorIO_v2_4dev9ExceptionD1Ev) #20
  unreachable

lpad25:                                           ; preds = %if.else24
  %2 = landingpad { ptr, i32 }
          cleanup
  tail call void @__cxa_free_exception(ptr %exception) #18
  resume { ptr, i32 } %2

if.end27:                                         ; preds = %if.else, %entry
  %.sink = phi i64 [ 4, %entry ], [ 3, %if.else ]
  %3 = phi i64 [ 16, %entry ], [ 12, %if.else ]
  %m_numChannels23 = getelementptr inbounds i8, ptr %call, i64 64
  store i64 %.sink, ptr %m_numChannels23, align 8
  %m_chanStrideBytes = getelementptr inbounds i8, ptr %call, i64 72
  store i64 4, ptr %m_chanStrideBytes, align 8
  %m_xStrideBytes = getelementptr inbounds i8, ptr %call, i64 80
  store i64 %3, ptr %m_xStrideBytes, align 8
  %mul41 = mul nsw i64 %3, %width
  %m_yStrideBytes = getelementptr inbounds i8, ptr %call, i64 88
  store i64 %mul41, ptr %m_yStrideBytes, align 8
  tail call void @_ZN19OpenColorIO_v2_4dev15PackedImageDesc4Impl10initValuesEv(ptr noundef nonnull align 8 dereferenceable(98) %call)
  %4 = load ptr, ptr %m_impl, align 8
  %call50 = tail call noundef zeroext i1 @_ZNK19OpenColorIO_v2_4dev15PackedImageDesc4Impl12isRGBAPackedEv(ptr noundef nonnull align 8 dereferenceable(98) %4)
  %5 = load ptr, ptr %m_impl, align 8
  %m_isRGBAPacked = getelementptr inbounds i8, ptr %5, i64 96
  %frombool = zext i1 %call50 to i8
  store i8 %frombool, ptr %m_isRGBAPacked, align 8
  %6 = load ptr, ptr %m_impl, align 8
  %m_chanStrideBytes.i = getelementptr inbounds i8, ptr %6, i64 72
  %7 = load i64, ptr %m_chanStrideBytes.i, align 8
  %cmp.i = icmp eq i64 %7, 4
  %m_bitDepth.i = getelementptr inbounds i8, ptr %6, i64 44
  %8 = load i32, ptr %m_bitDepth.i, align 4
  %cmp2.i = icmp eq i32 %8, 8
  %9 = select i1 %cmp.i, i1 %cmp2.i, i1 false
  %m_isFloat = getelementptr inbounds i8, ptr %6, i64 97
  %frombool59 = zext i1 %9 to i8
  store i8 %frombool59, ptr %m_isFloat, align 1
  %10 = load ptr, ptr %m_impl, align 8
  tail call void @_ZNK19OpenColorIO_v2_4dev15PackedImageDesc4Impl8validateEv(ptr noundef nonnull align 8 dereferenceable(98) %10)
  ret void
}